# SymbolsHelper-Confirmed: 6.4.0 amd64
libQt6Help.so.6 libqt6help6 #MINVER#
| libqt6help6 #MINVER#, qt6-help-abi (= 6.4.2)
* Build-Depends-Package: qt6-tools-dev
 _ZN11QHelpEngine11indexWidgetEv@Base 6.2.2
 _ZN11QHelpEngine11qt_metacallEN11QMetaObject4CallEiPPv@Base 6.2.2
 _ZN11QHelpEngine11qt_metacastEPKc@Base 6.2.2
 _ZN11QHelpEngine12searchEngineEv@Base 6.2.2
 _ZN11QHelpEngine13contentWidgetEv@Base 6.2.2
 _ZN11QHelpEngine16staticMetaObjectE@Base 6.2.2
 _ZN11QHelpEngineC1ERK7QStringP7QObject@Base 6.2.2
 _ZN11QHelpEngineC2ERK7QStringP7QObject@Base 6.2.2
 _ZN11QHelpEngineD0Ev@Base 6.2.2
 _ZN11QHelpEngineD1Ev@Base 6.2.2
 _ZN11QHelpEngineD2Ev@Base 6.2.2
 _ZN11QHelpGlobal13documentTitleERK7QString@Base 6.2.2
 _ZN11QHelpGlobal22uniquifyConnectionNameERK7QStringPv@Base 6.2.2
 _ZN15QHelpEngineCore11qt_metacallEN11QMetaObject4CallEiPPv@Base 6.2.2
 _ZN15QHelpEngineCore11qt_metacastEPKc@Base 6.2.2
 _ZN15QHelpEngineCore11setReadOnlyEb@Base 6.2.2
 _ZN15QHelpEngineCore12setupStartedEv@Base 6.2.2
 _ZN15QHelpEngineCore13namespaceNameERK7QString@Base 6.2.2
 _ZN15QHelpEngineCore13setupFinishedEv@Base 6.2.2
 _ZN15QHelpEngineCore14setCustomValueERK7QStringRK8QVariant@Base 6.2.2
 _ZN15QHelpEngineCore15addCustomFilterERK7QStringRK5QListIS0_E@Base 6.2.2
 _ZN15QHelpEngineCore16setCurrentFilterERK7QString@Base 6.2.2
 _ZN15QHelpEngineCore16staticMetaObjectE@Base 6.2.2
 _ZN15QHelpEngineCore17removeCustomValueERK7QString@Base 6.2.2
 _ZN15QHelpEngineCore17setAutoSaveFilterEb@Base 6.2.2
 _ZN15QHelpEngineCore17setCollectionFileERK7QString@Base 6.2.2
 _ZN15QHelpEngineCore18copyCollectionFileERK7QString@Base 6.2.2
 _ZN15QHelpEngineCore18removeCustomFilterERK7QString@Base 6.2.2
 _ZN15QHelpEngineCore19setUsesFilterEngineEb@Base 6.2.2
 _ZN15QHelpEngineCore20currentFilterChangedERK7QString@Base 6.2.2
 _ZN15QHelpEngineCore21documentationFileNameERK7QString@Base 6.2.2
 _ZN15QHelpEngineCore21registerDocumentationERK7QString@Base 6.2.2
 _ZN15QHelpEngineCore23unregisterDocumentationERK7QString@Base 6.2.2
 _ZN15QHelpEngineCore27readersAboutToBeInvalidatedEv@Base 6.2.2
 _ZN15QHelpEngineCore5filesE7QStringRK5QListIS0_ERKS0_@Base 6.2.2
 _ZN15QHelpEngineCore5filesE7QStringRKS0_S2_@Base 6.2.2
 _ZN15QHelpEngineCore7warningERK7QString@Base 6.2.2
 _ZN15QHelpEngineCore8metaDataERK7QStringS2_@Base 6.2.2
 _ZN15QHelpEngineCore9setupDataEv@Base 6.2.2
 _ZN15QHelpEngineCoreC1EP22QHelpEngineCorePrivateP7QObject@Base 6.2.2
 _ZN15QHelpEngineCoreC1ERK7QStringP7QObject@Base 6.2.2
 _ZN15QHelpEngineCoreC2EP22QHelpEngineCorePrivateP7QObject@Base 6.2.2
 _ZN15QHelpEngineCoreC2ERK7QStringP7QObject@Base 6.2.2
 _ZN15QHelpEngineCoreD0Ev@Base 6.2.2
 _ZN15QHelpEngineCoreD1Ev@Base 6.2.2
 _ZN15QHelpEngineCoreD2Ev@Base 6.2.2
 _ZN15QHelpFilterData11setVersionsERK5QListI14QVersionNumberE@Base 6.2.2
 _ZN15QHelpFilterData13setComponentsERK5QListI7QStringE@Base 6.2.2
 _ZN15QHelpFilterDataC1EOS_@Base 6.2.2
 _ZN15QHelpFilterDataC1ERKS_@Base 6.2.2
 _ZN15QHelpFilterDataC1Ev@Base 6.2.2
 _ZN15QHelpFilterDataC2EOS_@Base 6.2.2
 _ZN15QHelpFilterDataC2ERKS_@Base 6.2.2
 _ZN15QHelpFilterDataC2Ev@Base 6.2.2
 _ZN15QHelpFilterDataD1Ev@Base 6.2.2
 _ZN15QHelpFilterDataD2Ev@Base 6.2.2
 _ZN15QHelpFilterDataaSEOS_@Base 6.2.2
 _ZN15QHelpFilterDataaSERKS_@Base 6.2.2
 _ZN15QHelpIndexModel11createIndexERK7QString@Base 6.2.2
 _ZN15QHelpIndexModel11qt_metacallEN11QMetaObject4CallEiPPv@Base 6.2.2
 _ZN15QHelpIndexModel11qt_metacastEPKc@Base 6.2.2
 _ZN15QHelpIndexModel12indexCreatedEv@Base 6.2.2
 _ZN15QHelpIndexModel13insertIndicesEv@Base 6.2.2
 _ZN15QHelpIndexModel16staticMetaObjectE@Base 6.2.2
 _ZN15QHelpIndexModel20indexCreationStartedEv@Base 6.2.2
 _ZN15QHelpIndexModel6filterERK7QStringS2_@Base 6.2.2
 _ZN15QHelpIndexModelC1EP18QHelpEnginePrivate@Base 6.2.2
 _ZN15QHelpIndexModelC2EP18QHelpEnginePrivate@Base 6.2.2
 _ZN15QHelpIndexModelD0Ev@Base 6.2.2
 _ZN15QHelpIndexModelD1Ev@Base 6.2.2
 _ZN15QHelpIndexModelD2Ev@Base 6.2.2
 _ZN16QHelpContentItemC1ERK7QStringRK4QUrlPS_@Base 6.2.2
 _ZN16QHelpContentItemC2ERK7QStringRK4QUrlPS_@Base 6.2.2
 _ZN16QHelpContentItemD1Ev@Base 6.2.2
 _ZN16QHelpContentItemD2Ev@Base 6.2.2
 _ZN16QHelpIndexWidget11qt_metacallEN11QMetaObject4CallEiPPv@Base 6.2.2
 _ZN16QHelpIndexWidget11qt_metacastEPKc@Base 6.2.2
 _ZN16QHelpIndexWidget13filterIndicesERK7QStringS2_@Base 6.2.2
 _ZN16QHelpIndexWidget13linkActivatedERK4QUrlRK7QString@Base 6.2.2
 _ZN16QHelpIndexWidget14linksActivatedERK9QMultiMapI7QString4QUrlERKS1_@Base 6.2.2
 _ZN16QHelpIndexWidget16staticMetaObjectE@Base 6.2.2
 _ZN16QHelpIndexWidget17documentActivatedERK9QHelpLinkRK7QString@Base 6.2.2
 _ZN16QHelpIndexWidget18documentsActivatedERK5QListI9QHelpLinkERK7QString@Base 6.2.2
 _ZN16QHelpIndexWidget19activateCurrentItemEv@Base 6.2.2
 _ZN16QHelpIndexWidget8showLinkERK11QModelIndex@Base 6.2.2
 _ZN16QHelpIndexWidgetC1Ev@Base 6.2.2
 _ZN16QHelpIndexWidgetC2Ev@Base 6.2.2
 _ZN17QHelpContentModel11qt_metacallEN11QMetaObject4CallEiPPv@Base 6.2.2
 _ZN17QHelpContentModel11qt_metacastEPKc@Base 6.2.2
 _ZN17QHelpContentModel14createContentsERK7QString@Base 6.2.2
 _ZN17QHelpContentModel14insertContentsEv@Base 6.2.2
 _ZN17QHelpContentModel15contentsCreatedEv@Base 6.2.2
 _ZN17QHelpContentModel16staticMetaObjectE@Base 6.2.2
 _ZN17QHelpContentModel23contentsCreationStartedEv@Base 6.2.2
 _ZN17QHelpContentModelC1EP18QHelpEnginePrivate@Base 6.2.2
 _ZN17QHelpContentModelC2EP18QHelpEnginePrivate@Base 6.2.2
 _ZN17QHelpContentModelD0Ev@Base 6.2.2
 _ZN17QHelpContentModelD1Ev@Base 6.2.2
 _ZN17QHelpContentModelD2Ev@Base 6.2.2
 _ZN17QHelpFilterEngine11qt_metacallEN11QMetaObject4CallEiPPv@Base 6.2.2
 _ZN17QHelpFilterEngine11qt_metacastEPKc@Base 6.2.2
 _ZN17QHelpFilterEngine12removeFilterERK7QString@Base 6.2.2
 _ZN17QHelpFilterEngine13setFilterDataERK7QStringRK15QHelpFilterData@Base 6.2.2
 _ZN17QHelpFilterEngine15filterActivatedERK7QString@Base 6.2.2
 _ZN17QHelpFilterEngine15setActiveFilterERK7QString@Base 6.2.2
 _ZN17QHelpFilterEngine16staticMetaObjectE@Base 6.2.2
 _ZN17QHelpFilterEngine20setCollectionHandlerEP22QHelpCollectionHandler@Base 6.2.2
 _ZN17QHelpFilterEngineC1EP15QHelpEngineCore@Base 6.2.2
 _ZN17QHelpFilterEngineC2EP15QHelpEngineCore@Base 6.2.2
 _ZN17QHelpFilterEngineD0Ev@Base 6.2.2
 _ZN17QHelpFilterEngineD1Ev@Base 6.2.2
 _ZN17QHelpFilterEngineD2Ev@Base 6.2.2
 _ZN17QHelpSearchEngine11qt_metacallEN11QMetaObject4CallEiPPv@Base 6.2.2
 _ZN17QHelpSearchEngine11qt_metacastEPKc@Base 6.2.2
 _ZN17QHelpSearchEngine11queryWidgetEv@Base 6.2.2
 _ZN17QHelpSearchEngine12resultWidgetEv@Base 6.2.2
 _ZN17QHelpSearchEngine14cancelIndexingEv@Base 6.2.2
 _ZN17QHelpSearchEngine15cancelSearchingEv@Base 6.2.2
 _ZN17QHelpSearchEngine15indexingStartedEv@Base 6.2.2
 _ZN17QHelpSearchEngine16indexingFinishedEv@Base 6.2.2
 _ZN17QHelpSearchEngine16searchingStartedEv@Base 6.2.2
 _ZN17QHelpSearchEngine16staticMetaObjectE@Base 6.2.2
 _ZN17QHelpSearchEngine17searchingFinishedEi@Base 6.2.2
 _ZN17QHelpSearchEngine18indexDocumentationEv@Base 6.2.2
 _ZN17QHelpSearchEngine20reindexDocumentationEv@Base 6.2.2
 _ZN17QHelpSearchEngine26scheduleIndexDocumentationEv@Base 6.2.2
 _ZN17QHelpSearchEngine6searchERK5QListI16QHelpSearchQueryE@Base 6.2.2
 _ZN17QHelpSearchEngine6searchERK7QString@Base 6.2.2
 _ZN17QHelpSearchEngineC1EP15QHelpEngineCoreP7QObject@Base 6.2.2
 _ZN17QHelpSearchEngineC2EP15QHelpEngineCoreP7QObject@Base 6.2.2
 _ZN17QHelpSearchEngineD0Ev@Base 6.2.2
 _ZN17QHelpSearchEngineD1Ev@Base 6.2.2
 _ZN17QHelpSearchEngineD2Ev@Base 6.2.2
 _ZN17QHelpSearchResultC1ERK4QUrlRK7QStringS5_@Base 6.2.2
 _ZN17QHelpSearchResultC1ERKS_@Base 6.2.2
 _ZN17QHelpSearchResultC1Ev@Base 6.2.2
 _ZN17QHelpSearchResultC2ERK4QUrlRK7QStringS5_@Base 6.2.2
 _ZN17QHelpSearchResultC2ERKS_@Base 6.2.2
 _ZN17QHelpSearchResultC2Ev@Base 6.2.2
 _ZN17QHelpSearchResultD1Ev@Base 6.2.2
 _ZN17QHelpSearchResultD2Ev@Base 6.2.2
 _ZN17QHelpSearchResultaSERKS_@Base 6.2.2
 _ZN18QHelpContentWidget11qt_metacallEN11QMetaObject4CallEiPPv@Base 6.2.2
 _ZN18QHelpContentWidget11qt_metacastEPKc@Base 6.2.2
 _ZN18QHelpContentWidget13linkActivatedERK4QUrl@Base 6.2.2
 _ZN18QHelpContentWidget16staticMetaObjectE@Base 6.2.2
 _ZN18QHelpContentWidget17searchContentItemEP17QHelpContentModelRK11QModelIndexRK7QString@Base 6.2.2
 _ZN18QHelpContentWidget7indexOfERK4QUrl@Base 6.2.2
 _ZN18QHelpContentWidget8showLinkERK11QModelIndex@Base 6.2.2
 _ZN18QHelpContentWidgetC1Ev@Base 6.2.2
 _ZN18QHelpContentWidgetC2Ev@Base 6.2.2
 _ZN19QCompressedHelpInfo22fromCompressedHelpFileERK7QString@Base 6.2.2
 _ZN19QCompressedHelpInfoC1EOS_@Base 6.2.2
 _ZN19QCompressedHelpInfoC1ERKS_@Base 6.2.2
 _ZN19QCompressedHelpInfoC1Ev@Base 6.2.2
 _ZN19QCompressedHelpInfoC2EOS_@Base 6.2.2
 _ZN19QCompressedHelpInfoC2ERKS_@Base 6.2.2
 _ZN19QCompressedHelpInfoC2Ev@Base 6.2.2
 _ZN19QCompressedHelpInfoD1Ev@Base 6.2.2
 _ZN19QCompressedHelpInfoD2Ev@Base 6.2.2
 _ZN19QCompressedHelpInfoaSEOS_@Base 6.2.2
 _ZN19QCompressedHelpInfoaSERKS_@Base 6.2.2
 _ZN22QHelpSearchQueryWidget11changeEventEP6QEvent@Base 6.2.2
 _ZN22QHelpSearchQueryWidget11qt_metacallEN11QMetaObject4CallEiPPv@Base 6.2.2
 _ZN22QHelpSearchQueryWidget11qt_metacastEPKc@Base 6.2.2
 _ZN22QHelpSearchQueryWidget12focusInEventEP11QFocusEvent@Base 6.2.2
 _ZN22QHelpSearchQueryWidget14setCompactModeEb@Base 6.2.2
 _ZN22QHelpSearchQueryWidget14setSearchInputERK7QString@Base 6.2.2
 _ZN22QHelpSearchQueryWidget16staticMetaObjectE@Base 6.2.2
 _ZN22QHelpSearchQueryWidget20expandExtendedSearchEv@Base 6.2.2
 _ZN22QHelpSearchQueryWidget22collapseExtendedSearchEv@Base 6.2.2
 _ZN22QHelpSearchQueryWidget6searchEv@Base 6.2.2
 _ZN22QHelpSearchQueryWidget8setQueryERK5QListI16QHelpSearchQueryE@Base 6.2.2
 _ZN22QHelpSearchQueryWidgetC1EP7QWidget@Base 6.2.2
 _ZN22QHelpSearchQueryWidgetC2EP7QWidget@Base 6.2.2
 _ZN22QHelpSearchQueryWidgetD0Ev@Base 6.2.2
 _ZN22QHelpSearchQueryWidgetD1Ev@Base 6.2.2
 _ZN22QHelpSearchQueryWidgetD2Ev@Base 6.2.2
 _ZN23QHelpSearchResultWidget11changeEventEP6QEvent@Base 6.2.2
 _ZN23QHelpSearchResultWidget11qt_metacallEN11QMetaObject4CallEiPPv@Base 6.2.2
 _ZN23QHelpSearchResultWidget11qt_metacastEPKc@Base 6.2.2
 _ZN23QHelpSearchResultWidget15requestShowLinkERK4QUrl@Base 6.2.2
 _ZN23QHelpSearchResultWidget16staticMetaObjectE@Base 6.2.2
 _ZN23QHelpSearchResultWidget6linkAtERK6QPoint@Base 6.2.2
 _ZN23QHelpSearchResultWidgetC1EP17QHelpSearchEngine@Base 6.2.2
 _ZN23QHelpSearchResultWidgetC2EP17QHelpSearchEngine@Base 6.2.2
 _ZN23QHelpSearchResultWidgetD0Ev@Base 6.2.2
 _ZN23QHelpSearchResultWidgetD1Ev@Base 6.2.2
 _ZN23QHelpSearchResultWidgetD2Ev@Base 6.2.2
 _ZN25QHelpFilterSettingsWidget11qt_metacallEN11QMetaObject4CallEiPPv@Base 6.2.2
 _ZN25QHelpFilterSettingsWidget11qt_metacastEPKc@Base 6.2.2
 _ZN25QHelpFilterSettingsWidget12readSettingsEPK17QHelpFilterEngine@Base 6.2.2
 _ZN25QHelpFilterSettingsWidget16staticMetaObjectE@Base 6.2.2
 _ZN25QHelpFilterSettingsWidget20setAvailableVersionsERK5QListI14QVersionNumberE@Base 6.2.2
 _ZN25QHelpFilterSettingsWidget22setAvailableComponentsERK5QListI7QStringE@Base 6.2.2
 _ZN25QHelpFilterSettingsWidgetC1EP7QWidget@Base 6.2.2
 _ZN25QHelpFilterSettingsWidgetC2EP7QWidget@Base 6.2.2
 _ZN25QHelpFilterSettingsWidgetD0Ev@Base 6.2.2
 _ZN25QHelpFilterSettingsWidgetD1Ev@Base 6.2.2
 _ZN25QHelpFilterSettingsWidgetD2Ev@Base 6.2.2
 _ZNK11QHelpEngine10indexModelEv@Base 6.2.2
 _ZNK11QHelpEngine10metaObjectEv@Base 6.2.2
 _ZNK11QHelpEngine12contentModelEv@Base 6.2.2
 _ZNK15QHelpEngineCore10isReadOnlyEv@Base 6.2.2
 _ZNK15QHelpEngineCore10metaObjectEv@Base 6.2.2
 _ZNK15QHelpEngineCore11customValueERK7QStringRK8QVariant@Base 6.2.2
 _ZNK15QHelpEngineCore12filterEngineEv@Base 6.2.2
 _ZNK15QHelpEngineCore13currentFilterEv@Base 6.2.2
 _ZNK15QHelpEngineCore13customFiltersEv@Base 6.2.2
 _ZNK15QHelpEngineCore14autoSaveFilterEv@Base 6.2.2
 _ZNK15QHelpEngineCore14collectionFileEv@Base 6.2.2
 _ZNK15QHelpEngineCore16filterAttributesERK7QString@Base 6.2.2
 _ZNK15QHelpEngineCore16filterAttributesEv@Base 6.2.2
 _ZNK15QHelpEngineCore16usesFilterEngineEv@Base 6.2.2
 _ZNK15QHelpEngineCore19documentsForKeywordERK7QString@Base 6.2.2
 _ZNK15QHelpEngineCore19documentsForKeywordERK7QStringS2_@Base 6.2.2
 _ZNK15QHelpEngineCore19filterAttributeSetsERK7QString@Base 6.2.2
 _ZNK15QHelpEngineCore22documentsForIdentifierERK7QString@Base 6.2.2
 _ZNK15QHelpEngineCore22documentsForIdentifierERK7QStringS2_@Base 6.2.2
 _ZNK15QHelpEngineCore24registeredDocumentationsEv@Base 6.2.2
 _ZNK15QHelpEngineCore5errorEv@Base 6.2.2
 _ZNK15QHelpEngineCore8fileDataERK4QUrl@Base 6.2.2
 _ZNK15QHelpEngineCore8findFileERK4QUrl@Base 6.2.2
 _ZNK15QHelpFilterData10componentsEv@Base 6.2.2
 _ZNK15QHelpFilterData8versionsEv@Base 6.2.2
 _ZNK15QHelpFilterDataeqERKS_@Base 6.2.2
 _ZNK15QHelpIndexModel10helpEngineEv@Base 6.2.2
 _ZNK15QHelpIndexModel10metaObjectEv@Base 6.2.2
 _ZNK15QHelpIndexModel15isCreatingIndexEv@Base 6.2.2
 _ZNK16QHelpContentItem10childCountEv@Base 6.2.2
 _ZNK16QHelpContentItem13childPositionEPS_@Base 6.2.2
 _ZNK16QHelpContentItem3rowEv@Base 6.2.2
 _ZNK16QHelpContentItem3urlEv@Base 6.2.2
 _ZNK16QHelpContentItem5childEi@Base 6.2.2
 _ZNK16QHelpContentItem5titleEv@Base 6.2.2
 _ZNK16QHelpContentItem6parentEv@Base 6.2.2
 _ZNK16QHelpIndexWidget10metaObjectEv@Base 6.2.2
 _ZNK17QHelpContentModel10metaObjectEv@Base 6.2.2
 _ZNK17QHelpContentModel11columnCountERK11QModelIndex@Base 6.2.2
 _ZNK17QHelpContentModel13contentItemAtERK11QModelIndex@Base 6.2.2
 _ZNK17QHelpContentModel18isCreatingContentsEv@Base 6.2.2
 _ZNK17QHelpContentModel4dataERK11QModelIndexi@Base 6.2.2
 _ZNK17QHelpContentModel5indexEiiRK11QModelIndex@Base 6.2.2
 _ZNK17QHelpContentModel6parentERK11QModelIndex@Base 6.2.2
 _ZNK17QHelpContentModel8rowCountERK11QModelIndex@Base 6.2.2
 _ZNK17QHelpFilterEngine10filterDataERK7QString@Base 6.2.2
 _ZNK17QHelpFilterEngine10metaObjectEv@Base 6.2.2
 _ZNK17QHelpFilterEngine12activeFilterEv@Base 6.2.2
 _ZNK17QHelpFilterEngine17availableVersionsEv@Base 6.2.2
 _ZNK17QHelpFilterEngine18namespaceToVersionEv@Base 6.2.2
 _ZNK17QHelpFilterEngine19availableComponentsEv@Base 6.2.2
 _ZNK17QHelpFilterEngine19namespacesForFilterERK7QString@Base 6.2.2
 _ZNK17QHelpFilterEngine20namespaceToComponentEv@Base 6.2.2
 _ZNK17QHelpFilterEngine7filtersEv@Base 6.2.2
 _ZNK17QHelpFilterEngine7indicesERK7QString@Base 6.2.2
 _ZNK17QHelpFilterEngine7indicesEv@Base 6.2.2
 _ZNK17QHelpSearchEngine10metaObjectEv@Base 6.2.2
 _ZNK17QHelpSearchEngine11searchInputEv@Base 6.2.2
 _ZNK17QHelpSearchEngine13searchResultsEii@Base 6.2.2
 _ZNK17QHelpSearchEngine17searchResultCountEv@Base 6.2.2
 _ZNK17QHelpSearchEngine4hitsEii@Base 6.2.2
 _ZNK17QHelpSearchEngine5queryEv@Base 6.2.2
 _ZNK17QHelpSearchEngine8hitCountEv@Base 6.2.2
 _ZNK17QHelpSearchEngine9hitsCountEv@Base 6.2.2
 _ZNK17QHelpSearchResult3urlEv@Base 6.2.2
 _ZNK17QHelpSearchResult5titleEv@Base 6.2.2
 _ZNK17QHelpSearchResult7snippetEv@Base 6.2.2
 _ZNK18QHelpContentWidget10metaObjectEv@Base 6.2.2
 _ZNK19QCompressedHelpInfo13namespaceNameEv@Base 6.2.2
 _ZNK19QCompressedHelpInfo6isNullEv@Base 6.2.2
 _ZNK19QCompressedHelpInfo7versionEv@Base 6.2.2
 _ZNK19QCompressedHelpInfo9componentEv@Base 6.2.2
 _ZNK22QHelpSearchQueryWidget10metaObjectEv@Base 6.2.2
 _ZNK22QHelpSearchQueryWidget11searchInputEv@Base 6.2.2
 _ZNK22QHelpSearchQueryWidget13isCompactModeEv@Base 6.2.2
 _ZNK22QHelpSearchQueryWidget5queryEv@Base 6.2.2
 _ZNK23QHelpSearchResultWidget10metaObjectEv@Base 6.2.2
 _ZNK25QHelpFilterSettingsWidget10metaObjectEv@Base 6.2.2
 _ZNK25QHelpFilterSettingsWidget13applySettingsEP17QHelpFilterEngine@Base 6.2.2
 _ZSt19piecewise_construct@Base 6.4.0
 _ZTI11QHelpEngine@Base 6.2.2
 _ZTI15QHelpEngineCore@Base 6.2.2
 _ZTI15QHelpIndexModel@Base 6.2.2
 _ZTI16QHelpIndexWidget@Base 6.2.2
 _ZTI17QHelpContentModel@Base 6.2.2
 _ZTI17QHelpFilterEngine@Base 6.2.2
 _ZTI17QHelpSearchEngine@Base 6.2.2
 _ZTI18QHelpContentWidget@Base 6.2.2
 _ZTI22QHelpSearchQueryWidget@Base 6.2.2
 _ZTI23QHelpSearchResultWidget@Base 6.2.2
 _ZTI25QHelpFilterSettingsWidget@Base 6.2.2
 _ZTS11QHelpEngine@Base 6.2.2
 _ZTS15QHelpEngineCore@Base 6.2.2
 _ZTS15QHelpIndexModel@Base 6.2.2
 _ZTS16QHelpIndexWidget@Base 6.2.2
 _ZTS17QHelpContentModel@Base 6.2.2
 _ZTS17QHelpFilterEngine@Base 6.2.2
 _ZTS17QHelpSearchEngine@Base 6.2.2
 _ZTS18QHelpContentWidget@Base 6.2.2
 _ZTS22QHelpSearchQueryWidget@Base 6.2.2
 _ZTS23QHelpSearchResultWidget@Base 6.2.2
 _ZTS25QHelpFilterSettingsWidget@Base 6.2.2
 _ZTV11QHelpEngine@Base 6.2.2
 _ZTV15QHelpEngineCore@Base 6.2.2
 _ZTV15QHelpIndexModel@Base 6.2.2
 _ZTV16QHelpIndexWidget@Base 6.2.2
 _ZTV17QHelpContentModel@Base 6.2.2
 _ZTV17QHelpFilterEngine@Base 6.2.2
 _ZTV17QHelpSearchEngine@Base 6.2.2
 _ZTV18QHelpContentWidget@Base 6.2.2
 _ZTV22QHelpSearchQueryWidget@Base 6.2.2
 _ZTV23QHelpSearchResultWidget@Base 6.2.2
 _ZTV25QHelpFilterSettingsWidget@Base 6.2.2
 (c++)"non-virtual thunk to QHelpFilterSettingsWidget::~QHelpFilterSettingsWidget()@Base" 6.2.2
 (c++)"non-virtual thunk to QHelpSearchQueryWidget::~QHelpSearchQueryWidget()@Base" 6.2.2
 (c++)"non-virtual thunk to QHelpSearchResultWidget::~QHelpSearchResultWidget()@Base" 6.2.2
