# SymbolsHelper-Confirmed: 6.2.2 amd64
libQt6UiTools.so.6 libqt6uitools6 #MINVER#
| libqt6uitools6 #MINVER#, qt6-uitools-abi (= 6.2.4)
* Build-Depends-Package: qt6-tools-dev
 _ZGVZN9QMetaType21registerConverterImplI5QListIP7QWidgetE9QIterableI13QMetaSequenceEEEbSt8functionIFbPKvPvEES_S_E10unregister@Base 6.2.2
 _ZGVZN9QMetaType23registerMutableViewImplI5QListIP7QWidgetE9QIterableI13QMetaSequenceEEEbSt8functionIFbPvS9_EES_S_E10unregister@Base 6.2.2
 _ZN13QFormInternal12qUiItemRolesE@Base 6.2.2
 _ZN13QMetaSequence12MetaSequenceI5QListIP7QWidgetEE5valueE@Base 6.2.2
 _ZN9QUiLoader11qt_metacallEN11QMetaObject4CallEiPPv@Base 6.2.2
 _ZN9QUiLoader11qt_metacastEPKc@Base 6.2.2
 _ZN9QUiLoader12createActionEP7QObjectRK7QString@Base 6.2.2
 _ZN9QUiLoader12createLayoutERK7QStringP7QObjectS2_@Base 6.2.2
 _ZN9QUiLoader12createWidgetERK7QStringP7QWidgetS2_@Base 6.2.2
 _ZN9QUiLoader13addPluginPathERK7QString@Base 6.2.2
 _ZN9QUiLoader16clearPluginPathsEv@Base 6.2.2
 _ZN9QUiLoader16staticMetaObjectE@Base 6.2.2
 _ZN9QUiLoader17createActionGroupEP7QObjectRK7QString@Base 6.2.2
 _ZN9QUiLoader19setWorkingDirectoryERK4QDir@Base 6.2.2
 _ZN9QUiLoader21setTranslationEnabledEb@Base 6.2.2
 _ZN9QUiLoader24setLanguageChangeEnabledEb@Base 6.2.2
 _ZN9QUiLoader4loadEP9QIODeviceP7QWidget@Base 6.2.2
 _ZN9QUiLoaderC1EP7QObject@Base 6.2.2
 _ZN9QUiLoaderC2EP7QObject@Base 6.2.2
 _ZN9QUiLoaderD0Ev@Base 6.2.2
 _ZN9QUiLoaderD1Ev@Base 6.2.2
 _ZN9QUiLoaderD2Ev@Base 6.2.2
 _ZNK26QUiTranslatableStringValue9translateERK10QByteArrayb@Base 6.2.2
 _ZNK9QUiLoader10metaObjectEv@Base 6.2.2
 _ZNK9QUiLoader11errorStringEv@Base 6.2.2
 _ZNK9QUiLoader11pluginPathsEv@Base 6.2.2
 _ZNK9QUiLoader16availableLayoutsEv@Base 6.2.2
 _ZNK9QUiLoader16availableWidgetsEv@Base 6.2.2
 _ZNK9QUiLoader16workingDirectoryEv@Base 6.2.2
 _ZNK9QUiLoader20isTranslationEnabledEv@Base 6.2.2
 _ZNK9QUiLoader23isLanguageChangeEnabledEv@Base 6.2.2
 (optional=templinst)_ZNSt8_Rb_treeI7QStringSt4pairIKS0_bESt10_Select1stIS3_ESt4lessIS0_ESaIS3_EE24_M_get_insert_unique_posERS2_@Base 6.2.2
 (optional=templinst)_ZNSt8_Rb_treeI7QStringSt4pairIKS0_bESt10_Select1stIS3_ESt4lessIS0_ESaIS3_EE29_M_get_insert_hint_unique_posESt23_Rb_tree_const_iteratorIS3_ERS2_@Base 6.2.2
 _ZTI9QUiLoader@Base 6.2.2
 _ZTIZN9QMetaType17registerConverterI5QListIP7QWidgetE9QIterableI13QMetaSequenceEN9QtPrivate33QSequentialIterableConvertFunctorIS4_EEEEbT1_EUlPKvPvE_@Base 6.2.2
 _ZTIZN9QMetaType19registerMutableViewI5QListIP7QWidgetE9QIterableI13QMetaSequenceEN9QtPrivate37QSequentialIterableMutableViewFunctorIS4_EEEEbT1_EUlPvSC_E_@Base 6.2.2
 _ZTS9QUiLoader@Base 6.2.2
 _ZTSZN9QMetaType17registerConverterI5QListIP7QWidgetE9QIterableI13QMetaSequenceEN9QtPrivate33QSequentialIterableConvertFunctorIS4_EEEEbT1_EUlPKvPvE_@Base 6.2.2
 _ZTSZN9QMetaType19registerMutableViewI5QListIP7QWidgetE9QIterableI13QMetaSequenceEN9QtPrivate37QSequentialIterableMutableViewFunctorIS4_EEEEbT1_EUlPvSC_E_@Base 6.2.2
 _ZTV9QUiLoader@Base 6.2.2
 (optional=templinst)_ZZN9QMetaType21registerConverterImplI5QListIP7QWidgetE9QIterableI13QMetaSequenceEEEbSt8functionIFbPKvPvEES_S_E10unregister@Base 6.2.2
 (optional=templinst)_ZZN9QMetaType23registerMutableViewImplI5QListIP7QWidgetE9QIterableI13QMetaSequenceEEEbSt8functionIFbPvS9_EES_S_E10unregister@Base 6.2.2
 (optional=templinst)_ZZN9QtPrivate16QMetaTypeForTypeI5QCharE10getCopyCtrEvENUlPKNS_18QMetaTypeInterfaceEPvPKvE_4_FUNES5_S6_S8_@Base 6.2.2
 (optional=templinst)_ZZN9QtPrivate16QMetaTypeForTypeI5QCharE10getMoveCtrEvENUlPKNS_18QMetaTypeInterfaceEPvS6_E_4_FUNES5_S6_S6_@Base 6.2.2
 (optional=templinst)_ZZN9QtPrivate16QMetaTypeForTypeI5QCharE13getDefaultCtrEvENUlPKNS_18QMetaTypeInterfaceEPvE_4_FUNES5_S6_@Base 6.2.2
 (optional=templinst)_ZZN9QtPrivate16QMetaTypeForTypeI5QDateE10getCopyCtrEvENUlPKNS_18QMetaTypeInterfaceEPvPKvE_4_FUNES5_S6_S8_@Base 6.2.2
 (optional=templinst)_ZZN9QtPrivate16QMetaTypeForTypeI5QDateE10getMoveCtrEvENUlPKNS_18QMetaTypeInterfaceEPvS6_E_4_FUNES5_S6_S6_@Base 6.2.2
 (optional=templinst)_ZZN9QtPrivate16QMetaTypeForTypeI5QDateE13getDefaultCtrEvENUlPKNS_18QMetaTypeInterfaceEPvE_4_FUNES5_S6_@Base 6.2.2
 (optional=templinst)_ZZN9QtPrivate16QMetaTypeForTypeI5QListI7QStringEE10getCopyCtrEvENUlPKNS_18QMetaTypeInterfaceEPvPKvE_4_FUNES7_S8_SA_@Base 6.2.2
 (optional=templinst)_ZZN9QtPrivate16QMetaTypeForTypeI5QListI7QStringEE10getMoveCtrEvENUlPKNS_18QMetaTypeInterfaceEPvS8_E_4_FUNES7_S8_S8_@Base 6.2.2
 (optional=templinst)_ZZN9QtPrivate16QMetaTypeForTypeI5QListI7QStringEE13getDefaultCtrEvENUlPKNS_18QMetaTypeInterfaceEPvE_4_FUNES7_S8_@Base 6.2.2
 (optional=templinst)_ZZN9QtPrivate16QMetaTypeForTypeI5QListI7QStringEE7getDtorEvENUlPKNS_18QMetaTypeInterfaceEPvE_4_FUNES7_S8_@Base 6.2.2
 (optional=templinst)_ZZN9QtPrivate16QMetaTypeForTypeI5QRectE10getCopyCtrEvENUlPKNS_18QMetaTypeInterfaceEPvPKvE_4_FUNES5_S6_S8_@Base 6.2.2
 (optional=templinst)_ZZN9QtPrivate16QMetaTypeForTypeI5QRectE10getMoveCtrEvENUlPKNS_18QMetaTypeInterfaceEPvS6_E_4_FUNES5_S6_S6_@Base 6.2.2
 (optional=templinst)_ZZN9QtPrivate16QMetaTypeForTypeI5QRectE13getDefaultCtrEvENUlPKNS_18QMetaTypeInterfaceEPvE_4_FUNES5_S6_@Base 6.2.2
 (optional=templinst)_ZZN9QtPrivate16QMetaTypeForTypeI5QTimeE10getCopyCtrEvENUlPKNS_18QMetaTypeInterfaceEPvPKvE_4_FUNES5_S6_S8_@Base 6.2.2
 (optional=templinst)_ZZN9QtPrivate16QMetaTypeForTypeI5QTimeE10getMoveCtrEvENUlPKNS_18QMetaTypeInterfaceEPvS6_E_4_FUNES5_S6_S6_@Base 6.2.2
 (optional=templinst)_ZZN9QtPrivate16QMetaTypeForTypeI5QTimeE13getDefaultCtrEvENUlPKNS_18QMetaTypeInterfaceEPvE_4_FUNES5_S6_@Base 6.2.2
 (optional=templinst)_ZZN9QtPrivate16QMetaTypeForTypeI7QLocaleE10getCopyCtrEvENUlPKNS_18QMetaTypeInterfaceEPvPKvE_4_FUNES5_S6_S8_@Base 6.2.2
 (optional=templinst)_ZZN9QtPrivate16QMetaTypeForTypeI7QLocaleE10getMoveCtrEvENUlPKNS_18QMetaTypeInterfaceEPvS6_E_4_FUNES5_S6_S6_@Base 6.2.2
 (optional=templinst)_ZZN9QtPrivate16QMetaTypeForTypeI7QLocaleE13getDefaultCtrEvENUlPKNS_18QMetaTypeInterfaceEPvE_4_FUNES5_S6_@Base 6.2.2
 (optional=templinst)_ZZN9QtPrivate16QMetaTypeForTypeI7QLocaleE7getDtorEvENUlPKNS_18QMetaTypeInterfaceEPvE_4_FUNES5_S6_@Base 6.2.2
 (optional=templinst)_ZZN9QtPrivate16QMetaTypeForTypeI7QStringE10getCopyCtrEvENUlPKNS_18QMetaTypeInterfaceEPvPKvE_4_FUNES5_S6_S8_@Base 6.2.2
 (optional=templinst)_ZZN9QtPrivate16QMetaTypeForTypeI7QStringE10getMoveCtrEvENUlPKNS_18QMetaTypeInterfaceEPvS6_E_4_FUNES5_S6_S6_@Base 6.2.2
 (optional=templinst)_ZZN9QtPrivate16QMetaTypeForTypeI7QStringE13getDefaultCtrEvENUlPKNS_18QMetaTypeInterfaceEPvE_4_FUNES5_S6_@Base 6.2.2
 (optional=templinst)_ZZN9QtPrivate16QMetaTypeForTypeI7QStringE7getDtorEvENUlPKNS_18QMetaTypeInterfaceEPvE_4_FUNES5_S6_@Base 6.2.2
 (optional=templinst)_ZZN9QtPrivate16QMetaTypeForTypeI9QDateTimeE10getCopyCtrEvENUlPKNS_18QMetaTypeInterfaceEPvPKvE_4_FUNES5_S6_S8_@Base 6.2.2
 (optional=templinst)_ZZN9QtPrivate16QMetaTypeForTypeI9QDateTimeE10getMoveCtrEvENUlPKNS_18QMetaTypeInterfaceEPvS6_E_4_FUNES5_S6_S6_@Base 6.2.2
 (optional=templinst)_ZZN9QtPrivate16QMetaTypeForTypeI9QDateTimeE13getDefaultCtrEvENUlPKNS_18QMetaTypeInterfaceEPvE_4_FUNES5_S6_@Base 6.2.2
 (optional=templinst)_ZZN9QtPrivate16QMetaTypeForTypeI9QDateTimeE7getDtorEvENUlPKNS_18QMetaTypeInterfaceEPvE_4_FUNES5_S6_@Base 6.2.2
 _ZlsR11QDataStreamRK26QUiTranslatableStringValue@Base 6.2.2
 _ZrsR11QDataStreamR26QUiTranslatableStringValue@Base 6.2.2
