# SymbolsHelper-Confirmed: 6.2.2 amd64
libQt6DesignerComponents.so.6 libqt6designercomponents6 #MINVER#
| libqt6designercomponents6 #MINVER#, qt6-designer-abi (= 6.2.4)
* Build-Depends-Package: qt6-tools-dev
 _ZGVZN9QMetaType21registerConverterImplI4QMapIi5QIconE9QIterableI16QMetaAssociationEEEbSt8functionIFbPKvPvEES_S_E10unregister@Base 6.2.2
 _ZGVZN9QMetaType21registerConverterImplI5QListIP7QWidgetE9QIterableI13QMetaSequenceEEEbSt8functionIFbPKvPvEES_S_E10unregister@Base 6.2.2
 _ZGVZN9QMetaType21registerConverterImplI5QListISt4pairI7QStringjEE9QIterableI13QMetaSequenceEEEbSt8functionIFbPKvPvEES_S_E10unregister@Base 6.2.2
 _ZGVZN9QMetaType21registerConverterImplISt4pairI7QStringjEN17QtMetaTypePrivate25QPairVariantInterfaceImplEEEbSt8functionIFbPKvPvEES_S_E10unregister@Base 6.2.2
 _ZGVZN9QMetaType23registerMutableViewImplI4QMapIi5QIconE9QIterableI16QMetaAssociationEEEbSt8functionIFbPvS8_EES_S_E10unregister@Base 6.2.2
 _ZGVZN9QMetaType23registerMutableViewImplI5QListIP7QWidgetE9QIterableI13QMetaSequenceEEEbSt8functionIFbPvS9_EES_S_E10unregister@Base 6.2.2
 _ZGVZN9QMetaType23registerMutableViewImplI5QListISt4pairI7QStringjEE9QIterableI13QMetaSequenceEEEbSt8functionIFbPvSA_EES_S_E10unregister@Base 6.2.2
 _ZN13QMetaSequence12MetaSequenceI5QListIP7QWidgetEE5valueE@Base 6.2.2
 _ZN13QMetaSequence12MetaSequenceI5QListISt4pairI7QStringjEEE5valueE@Base 6.2.2
 _ZN16QMetaAssociation15MetaAssociationI4QMapIi5QIconEE5valueE@Base 6.2.2
 _ZN19QDesignerComponents14createTaskMenuEP28QDesignerFormEditorInterfaceP7QObject@Base 6.2.2
 _ZN19QDesignerComponents15createWidgetBoxEP28QDesignerFormEditorInterfaceP7QWidget@Base 6.2.2
 _ZN19QDesignerComponents16createFormEditorEP7QObject@Base 6.2.2
 _ZN19QDesignerComponents17initializePluginsEP28QDesignerFormEditorInterface@Base 6.2.2
 _ZN19QDesignerComponents18createActionEditorEP28QDesignerFormEditorInterfaceP7QWidget@Base 6.2.2
 _ZN19QDesignerComponents19initializeResourcesEv@Base 6.2.2
 _ZN19QDesignerComponents20createPropertyEditorEP28QDesignerFormEditorInterfaceP7QWidget@Base 6.2.2
 _ZN19QDesignerComponents20createResourceEditorEP28QDesignerFormEditorInterfaceP7QWidget@Base 6.2.2
 _ZN19QDesignerComponents21createObjectInspectorEP28QDesignerFormEditorInterfaceP7QWidget@Base 6.2.2
 _ZN19QDesignerComponents22createSignalSlotEditorEP28QDesignerFormEditorInterfaceP7QWidget@Base 6.2.2
 (optional=templinst)_ZNKSt8_Rb_treeI7QStringSt4pairIKS0_bESt10_Select1stIS3_ESt4lessIS0_ESaIS3_EE4findERS2_@Base 6.2.2
 (optional=templinst)_ZNKSt8_Rb_treeISt4pairIN5QIcon4ModeENS1_5StateEES0_IKS4_N18qdesigner_internal24PropertySheetPixmapValueEESt10_Select1stIS8_ESt4lessIS4_ESaIS8_EE4findERS5_@Base 6.2.2
 (optional=templinst)_ZNSt8_Rb_treeI7QStringSt4pairIKS0_8QVariantESt10_Select1stIS4_ESt4lessIS0_ESaIS4_EE24_M_get_insert_unique_posERS2_@Base 6.2.2
 (optional=templinst)_ZNSt8_Rb_treeI7QStringSt4pairIKS0_8QVariantESt10_Select1stIS4_ESt4lessIS0_ESaIS4_EE29_M_get_insert_hint_unique_posESt23_Rb_tree_const_iteratorIS4_ERS2_@Base 6.2.2
 (optional=templinst)_ZNSt8_Rb_treeI7QStringSt4pairIKS0_N7QLocale7CountryEESt10_Select1stIS5_ESt4lessIS0_ESaIS5_EE28_M_get_insert_hint_equal_posESt23_Rb_tree_const_iteratorIS5_ERS2_@Base 6.2.2
 (optional=templinst)_ZNSt8_Rb_treeI7QStringSt4pairIKS0_N7QLocale8LanguageEESt10_Select1stIS5_ESt4lessIS0_ESaIS5_EE28_M_get_insert_hint_equal_posESt23_Rb_tree_const_iteratorIS5_ERS2_@Base 6.2.2
 (optional=templinst)_ZNSt8_Rb_treeI7QStringSt4pairIKS0_S0_ESt10_Select1stIS3_ESt4lessIS0_ESaIS3_EE24_M_get_insert_unique_posERS2_@Base 6.2.2
 (optional=templinst)_ZNSt8_Rb_treeI7QStringSt4pairIKS0_S0_ESt10_Select1stIS3_ESt4lessIS0_ESaIS3_EE29_M_get_insert_hint_unique_posESt23_Rb_tree_const_iteratorIS3_ERS2_@Base 6.2.2
 (optional=templinst)_ZNSt8_Rb_treeI7QStringSt4pairIKS0_bESt10_Select1stIS3_ESt4lessIS0_ESaIS3_EE16_M_insert_uniqueIS3_EES1_ISt17_Rb_tree_iteratorIS3_EbEOT_@Base 6.2.2
 (optional=templinst)_ZNSt8_Rb_treeI7QStringSt4pairIKS0_bESt10_Select1stIS3_ESt4lessIS0_ESaIS3_EE24_M_get_insert_unique_posERS2_@Base 6.2.2
 (optional=templinst)_ZNSt8_Rb_treeI7QStringSt4pairIKS0_bESt10_Select1stIS3_ESt4lessIS0_ESaIS3_EE29_M_get_insert_hint_unique_posESt23_Rb_tree_const_iteratorIS3_ERS2_@Base 6.2.2
 (optional=templinst)_ZNSt8_Rb_treeI7QStringSt4pairIKS0_iESt10_Select1stIS3_ESt4lessIS0_ESaIS3_EE16_M_insert_uniqueIS3_EES1_ISt17_Rb_tree_iteratorIS3_EbEOT_@Base 6.2.2
 (optional=templinst)_ZNSt8_Rb_treeI7QStringSt4pairIKS0_iESt10_Select1stIS3_ESt4lessIS0_ESaIS3_EE4findERS2_@Base 6.2.2
 (optional=templinst)_ZNSt8_Rb_treeIN2Qt11CursorShapeESt4pairIKS1_iESt10_Select1stIS4_ESt4lessIS1_ESaIS4_EE24_M_get_insert_unique_posERS3_@Base 6.2.2
 (optional=templinst)_ZNSt8_Rb_treeIN2Qt11CursorShapeESt4pairIKS1_iESt10_Select1stIS4_ESt4lessIS1_ESaIS4_EE29_M_get_insert_hint_unique_posESt23_Rb_tree_const_iteratorIS4_ERS3_@Base 6.2.2
 (optional=templinst)_ZNSt8_Rb_treeIN7QLocale7CountryESt4pairIKS1_iESt10_Select1stIS4_ESt4lessIS1_ESaIS4_EE16_M_insert_uniqueIS4_EES2_ISt17_Rb_tree_iteratorIS4_EbEOT_@Base 6.2.2
 (optional=templinst)_ZNSt8_Rb_treeIN7QLocale8LanguageESt4pairIKS1_iESt10_Select1stIS4_ESt4lessIS1_ESaIS4_EE16_M_insert_uniqueIS4_EES2_ISt17_Rb_tree_iteratorIS4_EbEOT_@Base 6.2.2
 (optional=templinst)_ZNSt8_Rb_treeIP11QLayoutItemSt4pairIKS1_5QRectESt10_Select1stIS5_ESt4lessIS1_ESaIS5_EE16_M_insert_uniqueIS5_EES2_ISt17_Rb_tree_iteratorIS5_EbEOT_@Base 6.2.2
 (optional=templinst)_ZNSt8_Rb_treeIP7QWidgetSt4pairIKS1_S2_I8QPalettebEESt10_Select1stIS6_ESt4lessIS1_ESaIS6_EE24_M_get_insert_unique_posERS3_@Base 6.2.2
 (optional=templinst)_ZNSt8_Rb_treeIP7QWidgetSt4pairIKS1_S2_I8QPalettebEESt10_Select1stIS6_ESt4lessIS1_ESaIS6_EE29_M_get_insert_hint_unique_posESt23_Rb_tree_const_iteratorIS6_ERS3_@Base 6.2.2
 (optional=templinst)_ZNSt8_Rb_treeIiSt4pairIKi5QIconESt10_Select1stIS3_ESt4lessIiESaIS3_EE12_M_erase_auxESt23_Rb_tree_const_iteratorIS3_ESB_@Base 6.2.2
 (optional=templinst)_ZNSt8_Rb_treeIiSt4pairIKi5QIconESt10_Select1stIS3_ESt4lessIiESaIS3_EE16_M_insert_uniqueIS3_EES0_ISt17_Rb_tree_iteratorIS3_EbEOT_@Base 6.2.2
 (optional=templinst)_ZNSt8_Rb_treeIiSt4pairIKi5QIconESt10_Select1stIS3_ESt4lessIiESaIS3_EE24_M_get_insert_unique_posERS1_@Base 6.2.2
 (optional=templinst)_ZNSt8_Rb_treeIiSt4pairIKi5QIconESt10_Select1stIS3_ESt4lessIiESaIS3_EE29_M_get_insert_hint_unique_posESt23_Rb_tree_const_iteratorIS3_ERS1_@Base 6.2.2
 (optional=templinst)_ZNSt8_Rb_treeIiSt4pairIKiN2Qt11CursorShapeEESt10_Select1stIS4_ESt4lessIiESaIS4_EE24_M_get_insert_unique_posERS1_@Base 6.2.2
 (optional=templinst)_ZNSt8_Rb_treeIiSt4pairIKiN2Qt11CursorShapeEESt10_Select1stIS4_ESt4lessIiESaIS4_EE29_M_get_insert_hint_unique_posESt23_Rb_tree_const_iteratorIS4_ERS1_@Base 6.2.2
 (optional=templinst)_ZNSt8_Rb_treeIiSt4pairIKiN7QLocale7CountryEESt10_Select1stIS4_ESt4lessIiESaIS4_EE16_M_insert_uniqueIS4_EES0_ISt17_Rb_tree_iteratorIS4_EbEOT_@Base 6.2.2
 (optional=templinst)_ZNSt8_Rb_treeIiSt4pairIKiN7QLocale8LanguageEESt10_Select1stIS4_ESt4lessIiESaIS4_EE16_M_insert_uniqueIS4_EES0_ISt17_Rb_tree_iteratorIS4_EbEOT_@Base 6.2.2
 (optional=templinst)_ZNSt8_Rb_treeIiSt4pairIKiP15DomCustomWidgetESt10_Select1stIS4_ESt4lessIiESaIS4_EE24_M_get_insert_unique_posERS1_@Base 6.2.2
 (optional=templinst)_ZNSt8_Rb_treeIiSt4pairIKiP15DomCustomWidgetESt10_Select1stIS4_ESt4lessIiESaIS4_EE29_M_get_insert_hint_unique_posESt23_Rb_tree_const_iteratorIS4_ERS1_@Base 6.2.2
 (optional=templinst)_ZNSt8_Rb_treeIiSt4pairIKiiESt10_Select1stIS2_ESt4lessIiESaIS2_EE16_M_insert_uniqueIS2_EES0_ISt17_Rb_tree_iteratorIS2_EbEOT_@Base 6.2.2
 _ZTI29QDesignerOptionsPageInterface@Base 6.2.2
 _ZTI34QDesignerFormEditorPluginInterface@Base 6.2.2
 _ZTI34QDesignerFormWindowCursorInterface@Base 6.2.2
 _ZTIN18qdesigner_internal18QEditorFormBuilderE@Base 6.2.2
 _ZTIN18qdesigner_internal7CETypesE@Base 6.2.2
 _ZTIN18qdesigner_internal9CECommandE@Base 6.2.2
 _ZTIZN9QMetaType17registerConverterI4QMapIi5QIconE9QIterableI16QMetaAssociationEN9QtPrivate34QAssociativeIterableConvertFunctorIS3_EEEEbT1_EUlPKvPvE_@Base 6.2.2
 _ZTIZN9QMetaType17registerConverterI5QListIP7QWidgetE9QIterableI13QMetaSequenceEN9QtPrivate33QSequentialIterableConvertFunctorIS4_EEEEbT1_EUlPKvPvE_@Base 6.2.2
 _ZTIZN9QMetaType17registerConverterI5QListISt4pairI7QStringjEE9QIterableI13QMetaSequenceEN9QtPrivate33QSequentialIterableConvertFunctorIS5_EEEEbT1_EUlPKvPvE_@Base 6.2.2
 _ZTIZN9QMetaType17registerConverterISt4pairI7QStringjEN17QtMetaTypePrivate25QPairVariantInterfaceImplENS4_35QPairVariantInterfaceConvertFunctorIS3_EEEEbT1_EUlPKvPvE_@Base 6.2.2
 _ZTIZN9QMetaType19registerMutableViewI4QMapIi5QIconE9QIterableI16QMetaAssociationEN9QtPrivate38QAssociativeIterableMutableViewFunctorIS3_EEEEbT1_EUlPvSB_E_@Base 6.2.2
 _ZTIZN9QMetaType19registerMutableViewI5QListIP7QWidgetE9QIterableI13QMetaSequenceEN9QtPrivate37QSequentialIterableMutableViewFunctorIS4_EEEEbT1_EUlPvSC_E_@Base 6.2.2
 _ZTIZN9QMetaType19registerMutableViewI5QListISt4pairI7QStringjEE9QIterableI13QMetaSequenceEN9QtPrivate37QSequentialIterableMutableViewFunctorIS5_EEEEbT1_EUlPvSD_E_@Base 6.2.2
 _ZTS29QDesignerOptionsPageInterface@Base 6.2.2
 _ZTS34QDesignerFormEditorPluginInterface@Base 6.2.2
 _ZTS34QDesignerFormWindowCursorInterface@Base 6.2.2
 _ZTSN18qdesigner_internal18QEditorFormBuilderE@Base 6.2.2
 _ZTSN18qdesigner_internal7CETypesE@Base 6.2.2
 _ZTSN18qdesigner_internal9CECommandE@Base 6.2.2
 _ZTSZN9QMetaType17registerConverterI4QMapIi5QIconE9QIterableI16QMetaAssociationEN9QtPrivate34QAssociativeIterableConvertFunctorIS3_EEEEbT1_EUlPKvPvE_@Base 6.2.2
 _ZTSZN9QMetaType17registerConverterI5QListIP7QWidgetE9QIterableI13QMetaSequenceEN9QtPrivate33QSequentialIterableConvertFunctorIS4_EEEEbT1_EUlPKvPvE_@Base 6.2.2
 _ZTSZN9QMetaType17registerConverterI5QListISt4pairI7QStringjEE9QIterableI13QMetaSequenceEN9QtPrivate33QSequentialIterableConvertFunctorIS5_EEEEbT1_EUlPKvPvE_@Base 6.2.2
 _ZTSZN9QMetaType17registerConverterISt4pairI7QStringjEN17QtMetaTypePrivate25QPairVariantInterfaceImplENS4_35QPairVariantInterfaceConvertFunctorIS3_EEEEbT1_EUlPKvPvE_@Base 6.2.2
 _ZTSZN9QMetaType19registerMutableViewI4QMapIi5QIconE9QIterableI16QMetaAssociationEN9QtPrivate38QAssociativeIterableMutableViewFunctorIS3_EEEEbT1_EUlPvSB_E_@Base 6.2.2
 _ZTSZN9QMetaType19registerMutableViewI5QListIP7QWidgetE9QIterableI13QMetaSequenceEN9QtPrivate37QSequentialIterableMutableViewFunctorIS4_EEEEbT1_EUlPvSC_E_@Base 6.2.2
 _ZTSZN9QMetaType19registerMutableViewI5QListISt4pairI7QStringjEE9QIterableI13QMetaSequenceEN9QtPrivate37QSequentialIterableMutableViewFunctorIS5_EEEEbT1_EUlPvSD_E_@Base 6.2.2
 _ZTVN18qdesigner_internal18QEditorFormBuilderE@Base 6.2.2
 _ZTVN18qdesigner_internal9CECommandE@Base 6.2.2
 (optional=templinst)_ZZN9QMetaType21registerConverterImplI4QMapIi5QIconE9QIterableI16QMetaAssociationEEEbSt8functionIFbPKvPvEES_S_E10unregister@Base 6.2.2
 (optional=templinst)_ZZN9QMetaType21registerConverterImplI5QListIP7QWidgetE9QIterableI13QMetaSequenceEEEbSt8functionIFbPKvPvEES_S_E10unregister@Base 6.2.2
 (optional=templinst)_ZZN9QMetaType21registerConverterImplI5QListISt4pairI7QStringjEE9QIterableI13QMetaSequenceEEEbSt8functionIFbPKvPvEES_S_E10unregister@Base 6.2.2
 (optional=templinst)_ZZN9QMetaType21registerConverterImplISt4pairI7QStringjEN17QtMetaTypePrivate25QPairVariantInterfaceImplEEEbSt8functionIFbPKvPvEES_S_E10unregister@Base 6.2.2
 (optional=templinst)_ZZN9QMetaType23registerMutableViewImplI4QMapIi5QIconE9QIterableI16QMetaAssociationEEEbSt8functionIFbPvS8_EES_S_E10unregister@Base 6.2.2
 (optional=templinst)_ZZN9QMetaType23registerMutableViewImplI5QListIP7QWidgetE9QIterableI13QMetaSequenceEEEbSt8functionIFbPvS9_EES_S_E10unregister@Base 6.2.2
 (optional=templinst)_ZZN9QMetaType23registerMutableViewImplI5QListISt4pairI7QStringjEE9QIterableI13QMetaSequenceEEEbSt8functionIFbPvSA_EES_S_E10unregister@Base 6.2.2
 (optional=templinst)_ZZN9QtPrivate16QMetaTypeForTypeI10QByteArrayE10getCopyCtrEvENUlPKNS_18QMetaTypeInterfaceEPvPKvE_4_FUNES5_S6_S8_@Base 6.2.2
 (optional=templinst)_ZZN9QtPrivate16QMetaTypeForTypeI10QByteArrayE10getMoveCtrEvENUlPKNS_18QMetaTypeInterfaceEPvS6_E_4_FUNES5_S6_S6_@Base 6.2.2
 (optional=templinst)_ZZN9QtPrivate16QMetaTypeForTypeI10QByteArrayE13getDefaultCtrEvENUlPKNS_18QMetaTypeInterfaceEPvE_4_FUNES5_S6_@Base 6.2.2
 (optional=templinst)_ZZN9QtPrivate16QMetaTypeForTypeI10QByteArrayE7getDtorEvENUlPKNS_18QMetaTypeInterfaceEPvE_4_FUNES5_S6_@Base 6.2.2
 (optional=templinst)_ZZN9QtPrivate16QMetaTypeForTypeI11QModelIndexE10getCopyCtrEvENUlPKNS_18QMetaTypeInterfaceEPvPKvE_4_FUNES5_S6_S8_@Base 6.2.2
 (optional=templinst)_ZZN9QtPrivate16QMetaTypeForTypeI11QModelIndexE10getMoveCtrEvENUlPKNS_18QMetaTypeInterfaceEPvS6_E_4_FUNES5_S6_S6_@Base 6.2.2
 (optional=templinst)_ZZN9QtPrivate16QMetaTypeForTypeI11QModelIndexE13getDefaultCtrEvENUlPKNS_18QMetaTypeInterfaceEPvE_4_FUNES5_S6_@Base 6.2.2
 (optional=templinst)_ZZN9QtPrivate16QMetaTypeForTypeI18QRegularExpressionE10getCopyCtrEvENUlPKNS_18QMetaTypeInterfaceEPvPKvE_4_FUNES5_S6_S8_@Base 6.2.2
 (optional=templinst)_ZZN9QtPrivate16QMetaTypeForTypeI18QRegularExpressionE10getMoveCtrEvENUlPKNS_18QMetaTypeInterfaceEPvS6_E_4_FUNES5_S6_S6_@Base 6.2.2
 (optional=templinst)_ZZN9QtPrivate16QMetaTypeForTypeI18QRegularExpressionE13getDefaultCtrEvENUlPKNS_18QMetaTypeInterfaceEPvE_4_FUNES5_S6_@Base 6.2.2
 (optional=templinst)_ZZN9QtPrivate16QMetaTypeForTypeI18QRegularExpressionE7getDtorEvENUlPKNS_18QMetaTypeInterfaceEPvE_4_FUNES5_S6_@Base 6.2.2
 (optional=templinst)_ZZN9QtPrivate16QMetaTypeForTypeI4QUrlE10getCopyCtrEvENUlPKNS_18QMetaTypeInterfaceEPvPKvE_4_FUNES5_S6_S8_@Base 6.2.2
 (optional=templinst)_ZZN9QtPrivate16QMetaTypeForTypeI4QUrlE10getMoveCtrEvENUlPKNS_18QMetaTypeInterfaceEPvS6_E_4_FUNES5_S6_S6_@Base 6.2.2
 (optional=templinst)_ZZN9QtPrivate16QMetaTypeForTypeI4QUrlE13getDefaultCtrEvENUlPKNS_18QMetaTypeInterfaceEPvE_4_FUNES5_S6_@Base 6.2.2
 (optional=templinst)_ZZN9QtPrivate16QMetaTypeForTypeI4QUrlE7getDtorEvENUlPKNS_18QMetaTypeInterfaceEPvE_4_FUNES5_S6_@Base 6.2.2
 (optional=templinst)_ZZN9QtPrivate16QMetaTypeForTypeI5QCharE10getCopyCtrEvENUlPKNS_18QMetaTypeInterfaceEPvPKvE_4_FUNES5_S6_S8_@Base 6.2.2
 (optional=templinst)_ZZN9QtPrivate16QMetaTypeForTypeI5QCharE10getMoveCtrEvENUlPKNS_18QMetaTypeInterfaceEPvS6_E_4_FUNES5_S6_S6_@Base 6.2.2
 (optional=templinst)_ZZN9QtPrivate16QMetaTypeForTypeI5QCharE13getDefaultCtrEvENUlPKNS_18QMetaTypeInterfaceEPvE_4_FUNES5_S6_@Base 6.2.2
 (optional=templinst)_ZZN9QtPrivate16QMetaTypeForTypeI5QDateE10getCopyCtrEvENUlPKNS_18QMetaTypeInterfaceEPvPKvE_4_FUNES5_S6_S8_@Base 6.2.2
 (optional=templinst)_ZZN9QtPrivate16QMetaTypeForTypeI5QDateE10getMoveCtrEvENUlPKNS_18QMetaTypeInterfaceEPvS6_E_4_FUNES5_S6_S6_@Base 6.2.2
 (optional=templinst)_ZZN9QtPrivate16QMetaTypeForTypeI5QDateE13getDefaultCtrEvENUlPKNS_18QMetaTypeInterfaceEPvE_4_FUNES5_S6_@Base 6.2.2
 (optional=templinst)_ZZN9QtPrivate16QMetaTypeForTypeI5QListI7QStringEE10getCopyCtrEvENUlPKNS_18QMetaTypeInterfaceEPvPKvE_4_FUNES7_S8_SA_@Base 6.2.2
 (optional=templinst)_ZZN9QtPrivate16QMetaTypeForTypeI5QListI7QStringEE10getMoveCtrEvENUlPKNS_18QMetaTypeInterfaceEPvS8_E_4_FUNES7_S8_S8_@Base 6.2.2
 (optional=templinst)_ZZN9QtPrivate16QMetaTypeForTypeI5QListI7QStringEE13getDefaultCtrEvENUlPKNS_18QMetaTypeInterfaceEPvE_4_FUNES7_S8_@Base 6.2.2
 (optional=templinst)_ZZN9QtPrivate16QMetaTypeForTypeI5QListI7QStringEE7getDtorEvENUlPKNS_18QMetaTypeInterfaceEPvE_4_FUNES7_S8_@Base 6.2.2
 (optional=templinst)_ZZN9QtPrivate16QMetaTypeForTypeI5QRectE10getCopyCtrEvENUlPKNS_18QMetaTypeInterfaceEPvPKvE_4_FUNES5_S6_S8_@Base 6.2.2
 (optional=templinst)_ZZN9QtPrivate16QMetaTypeForTypeI5QRectE10getMoveCtrEvENUlPKNS_18QMetaTypeInterfaceEPvS6_E_4_FUNES5_S6_S6_@Base 6.2.2
 (optional=templinst)_ZZN9QtPrivate16QMetaTypeForTypeI5QRectE13getDefaultCtrEvENUlPKNS_18QMetaTypeInterfaceEPvE_4_FUNES5_S6_@Base 6.2.2
 (optional=templinst)_ZZN9QtPrivate16QMetaTypeForTypeI5QSizeE10getCopyCtrEvENUlPKNS_18QMetaTypeInterfaceEPvPKvE_4_FUNES5_S6_S8_@Base 6.2.2
 (optional=templinst)_ZZN9QtPrivate16QMetaTypeForTypeI5QSizeE10getMoveCtrEvENUlPKNS_18QMetaTypeInterfaceEPvS6_E_4_FUNES5_S6_S6_@Base 6.2.2
 (optional=templinst)_ZZN9QtPrivate16QMetaTypeForTypeI5QSizeE13getDefaultCtrEvENUlPKNS_18QMetaTypeInterfaceEPvE_4_FUNES5_S6_@Base 6.2.2
 (optional=templinst)_ZZN9QtPrivate16QMetaTypeForTypeI5QTimeE10getCopyCtrEvENUlPKNS_18QMetaTypeInterfaceEPvPKvE_4_FUNES5_S6_S8_@Base 6.2.2
 (optional=templinst)_ZZN9QtPrivate16QMetaTypeForTypeI5QTimeE10getMoveCtrEvENUlPKNS_18QMetaTypeInterfaceEPvS6_E_4_FUNES5_S6_S6_@Base 6.2.2
 (optional=templinst)_ZZN9QtPrivate16QMetaTypeForTypeI5QTimeE13getDefaultCtrEvENUlPKNS_18QMetaTypeInterfaceEPvE_4_FUNES5_S6_@Base 6.2.2
 (optional=templinst)_ZZN9QtPrivate16QMetaTypeForTypeI6QPointE10getCopyCtrEvENUlPKNS_18QMetaTypeInterfaceEPvPKvE_4_FUNES5_S6_S8_@Base 6.2.2
 (optional=templinst)_ZZN9QtPrivate16QMetaTypeForTypeI6QPointE10getMoveCtrEvENUlPKNS_18QMetaTypeInterfaceEPvS6_E_4_FUNES5_S6_S6_@Base 6.2.2
 (optional=templinst)_ZZN9QtPrivate16QMetaTypeForTypeI6QPointE13getDefaultCtrEvENUlPKNS_18QMetaTypeInterfaceEPvE_4_FUNES5_S6_@Base 6.2.2
 (optional=templinst)_ZZN9QtPrivate16QMetaTypeForTypeI6QRectFE10getCopyCtrEvENUlPKNS_18QMetaTypeInterfaceEPvPKvE_4_FUNES5_S6_S8_@Base 6.2.2
 (optional=templinst)_ZZN9QtPrivate16QMetaTypeForTypeI6QRectFE10getMoveCtrEvENUlPKNS_18QMetaTypeInterfaceEPvS6_E_4_FUNES5_S6_S6_@Base 6.2.2
 (optional=templinst)_ZZN9QtPrivate16QMetaTypeForTypeI6QRectFE13getDefaultCtrEvENUlPKNS_18QMetaTypeInterfaceEPvE_4_FUNES5_S6_@Base 6.2.2
 (optional=templinst)_ZZN9QtPrivate16QMetaTypeForTypeI6QSizeFE10getCopyCtrEvENUlPKNS_18QMetaTypeInterfaceEPvPKvE_4_FUNES5_S6_S8_@Base 6.2.2
 (optional=templinst)_ZZN9QtPrivate16QMetaTypeForTypeI6QSizeFE10getMoveCtrEvENUlPKNS_18QMetaTypeInterfaceEPvS6_E_4_FUNES5_S6_S6_@Base 6.2.2
 (optional=templinst)_ZZN9QtPrivate16QMetaTypeForTypeI6QSizeFE13getDefaultCtrEvENUlPKNS_18QMetaTypeInterfaceEPvE_4_FUNES5_S6_@Base 6.2.2
 (optional=templinst)_ZZN9QtPrivate16QMetaTypeForTypeI7QLocaleE10getCopyCtrEvENUlPKNS_18QMetaTypeInterfaceEPvPKvE_4_FUNES5_S6_S8_@Base 6.2.2
 (optional=templinst)_ZZN9QtPrivate16QMetaTypeForTypeI7QLocaleE10getMoveCtrEvENUlPKNS_18QMetaTypeInterfaceEPvS6_E_4_FUNES5_S6_S6_@Base 6.2.2
 (optional=templinst)_ZZN9QtPrivate16QMetaTypeForTypeI7QLocaleE13getDefaultCtrEvENUlPKNS_18QMetaTypeInterfaceEPvE_4_FUNES5_S6_@Base 6.2.2
 (optional=templinst)_ZZN9QtPrivate16QMetaTypeForTypeI7QLocaleE7getDtorEvENUlPKNS_18QMetaTypeInterfaceEPvE_4_FUNES5_S6_@Base 6.2.2
 (optional=templinst)_ZZN9QtPrivate16QMetaTypeForTypeI7QPointFE10getCopyCtrEvENUlPKNS_18QMetaTypeInterfaceEPvPKvE_4_FUNES5_S6_S8_@Base 6.2.2
 (optional=templinst)_ZZN9QtPrivate16QMetaTypeForTypeI7QPointFE10getMoveCtrEvENUlPKNS_18QMetaTypeInterfaceEPvS6_E_4_FUNES5_S6_S6_@Base 6.2.2
 (optional=templinst)_ZZN9QtPrivate16QMetaTypeForTypeI7QPointFE13getDefaultCtrEvENUlPKNS_18QMetaTypeInterfaceEPvE_4_FUNES5_S6_@Base 6.2.2
 (optional=templinst)_ZZN9QtPrivate16QMetaTypeForTypeI7QStringE10getCopyCtrEvENUlPKNS_18QMetaTypeInterfaceEPvPKvE_4_FUNES5_S6_S8_@Base 6.2.2
 (optional=templinst)_ZZN9QtPrivate16QMetaTypeForTypeI7QStringE10getMoveCtrEvENUlPKNS_18QMetaTypeInterfaceEPvS6_E_4_FUNES5_S6_S6_@Base 6.2.2
 (optional=templinst)_ZZN9QtPrivate16QMetaTypeForTypeI7QStringE13getDefaultCtrEvENUlPKNS_18QMetaTypeInterfaceEPvE_4_FUNES5_S6_@Base 6.2.2
 (optional=templinst)_ZZN9QtPrivate16QMetaTypeForTypeI7QStringE7getDtorEvENUlPKNS_18QMetaTypeInterfaceEPvE_4_FUNES5_S6_@Base 6.2.2
 (optional=templinst)_ZZN9QtPrivate16QMetaTypeForTypeI8QVariantE10getCopyCtrEvENUlPKNS_18QMetaTypeInterfaceEPvPKvE_4_FUNES5_S6_S8_@Base 6.2.2
 (optional=templinst)_ZZN9QtPrivate16QMetaTypeForTypeI8QVariantE10getMoveCtrEvENUlPKNS_18QMetaTypeInterfaceEPvS6_E_4_FUNES5_S6_S6_@Base 6.2.2
 (optional=templinst)_ZZN9QtPrivate16QMetaTypeForTypeI8QVariantE13getDefaultCtrEvENUlPKNS_18QMetaTypeInterfaceEPvE_4_FUNES5_S6_@Base 6.2.2
 (optional=templinst)_ZZN9QtPrivate16QMetaTypeForTypeI8QVariantE7getDtorEvENUlPKNS_18QMetaTypeInterfaceEPvE_4_FUNES5_S6_@Base 6.2.2
 (optional=templinst)_ZZN9QtPrivate16QMetaTypeForTypeI9QDateTimeE10getCopyCtrEvENUlPKNS_18QMetaTypeInterfaceEPvPKvE_4_FUNES5_S6_S8_@Base 6.2.2
 (optional=templinst)_ZZN9QtPrivate16QMetaTypeForTypeI9QDateTimeE10getMoveCtrEvENUlPKNS_18QMetaTypeInterfaceEPvS6_E_4_FUNES5_S6_S6_@Base 6.2.2
 (optional=templinst)_ZZN9QtPrivate16QMetaTypeForTypeI9QDateTimeE13getDefaultCtrEvENUlPKNS_18QMetaTypeInterfaceEPvE_4_FUNES5_S6_@Base 6.2.2
 (optional=templinst)_ZZN9QtPrivate16QMetaTypeForTypeI9QDateTimeE7getDtorEvENUlPKNS_18QMetaTypeInterfaceEPvE_4_FUNES5_S6_@Base 6.2.2
 (optional=templinst)_ZZN9QtPrivate16QMetaTypeForTypeIP7QObjectE10getCopyCtrEvENUlPKNS_18QMetaTypeInterfaceEPvPKvE_4_FUNES6_S7_S9_@Base 6.2.2
 (optional=templinst)_ZZN9QtPrivate16QMetaTypeForTypeIP7QObjectE10getMoveCtrEvENUlPKNS_18QMetaTypeInterfaceEPvS7_E_4_FUNES6_S7_S7_@Base 6.2.2
 (optional=templinst)_ZZN9QtPrivate16QMetaTypeForTypeIP7QObjectE13getDefaultCtrEvENUlPKNS_18QMetaTypeInterfaceEPvE_4_FUNES6_S7_@Base 6.2.2
 (optional=templinst)_ZZN9QtPrivate16QMetaTypeForTypeIbE10getCopyCtrEvENUlPKNS_18QMetaTypeInterfaceEPvPKvE_4_FUNES4_S5_S7_@Base 6.2.2
 (optional=templinst)_ZZN9QtPrivate16QMetaTypeForTypeIbE10getMoveCtrEvENUlPKNS_18QMetaTypeInterfaceEPvS5_E_4_FUNES4_S5_S5_@Base 6.2.2
 (optional=templinst)_ZZN9QtPrivate16QMetaTypeForTypeIbE13getDefaultCtrEvENUlPKNS_18QMetaTypeInterfaceEPvE_4_FUNES4_S5_@Base 6.2.2
 (optional=templinst)_ZZN9QtPrivate16QMetaTypeForTypeIdE10getCopyCtrEvENUlPKNS_18QMetaTypeInterfaceEPvPKvE_4_FUNES4_S5_S7_@Base 6.2.2
 (optional=templinst)_ZZN9QtPrivate16QMetaTypeForTypeIdE10getMoveCtrEvENUlPKNS_18QMetaTypeInterfaceEPvS5_E_4_FUNES4_S5_S5_@Base 6.2.2
 (optional=templinst)_ZZN9QtPrivate16QMetaTypeForTypeIdE13getDefaultCtrEvENUlPKNS_18QMetaTypeInterfaceEPvE_4_FUNES4_S5_@Base 6.2.2
 (optional=templinst)_ZZN9QtPrivate16QMetaTypeForTypeIiE10getCopyCtrEvENUlPKNS_18QMetaTypeInterfaceEPvPKvE_4_FUNES4_S5_S7_@Base 6.2.2
 (optional=templinst)_ZZN9QtPrivate16QMetaTypeForTypeIiE10getMoveCtrEvENUlPKNS_18QMetaTypeInterfaceEPvS5_E_4_FUNES4_S5_S5_@Base 6.2.2
 (optional=templinst)_ZZN9QtPrivate16QMetaTypeForTypeIiE13getDefaultCtrEvENUlPKNS_18QMetaTypeInterfaceEPvE_4_FUNES4_S5_@Base 6.2.2
 (optional=templinst)_ZZN9QtPrivate16QMetaTypeForTypeIjE10getCopyCtrEvENUlPKNS_18QMetaTypeInterfaceEPvPKvE_4_FUNES4_S5_S7_@Base 6.2.2
 (optional=templinst)_ZZN9QtPrivate16QMetaTypeForTypeIjE10getMoveCtrEvENUlPKNS_18QMetaTypeInterfaceEPvS5_E_4_FUNES4_S5_S5_@Base 6.2.2
 (optional=templinst)_ZZN9QtPrivate16QMetaTypeForTypeIjE13getDefaultCtrEvENUlPKNS_18QMetaTypeInterfaceEPvE_4_FUNES4_S5_@Base 6.2.2
 (optional=templinst)_ZZN9QtPrivate16QMetaTypeForTypeIxE10getCopyCtrEvENUlPKNS_18QMetaTypeInterfaceEPvPKvE_4_FUNES4_S5_S7_@Base 6.2.2
 (optional=templinst)_ZZN9QtPrivate16QMetaTypeForTypeIxE10getMoveCtrEvENUlPKNS_18QMetaTypeInterfaceEPvS5_E_4_FUNES4_S5_S5_@Base 6.2.2
 (optional=templinst)_ZZN9QtPrivate16QMetaTypeForTypeIxE13getDefaultCtrEvENUlPKNS_18QMetaTypeInterfaceEPvE_4_FUNES4_S5_@Base 6.2.2
 (optional=templinst)_ZZN9QtPrivate16QMetaTypeForTypeIyE10getCopyCtrEvENUlPKNS_18QMetaTypeInterfaceEPvPKvE_4_FUNES4_S5_S7_@Base 6.2.2
 (optional=templinst)_ZZN9QtPrivate16QMetaTypeForTypeIyE10getMoveCtrEvENUlPKNS_18QMetaTypeInterfaceEPvS5_E_4_FUNES4_S5_S5_@Base 6.2.2
 (optional=templinst)_ZZN9QtPrivate16QMetaTypeForTypeIyE13getDefaultCtrEvENUlPKNS_18QMetaTypeInterfaceEPvE_4_FUNES4_S5_@Base 6.2.2
